; ModuleID = '12/189.c'
source_filename = "12/189.c"
target datalayout = "e-m:e-p270:32:32-p271:32:32-p272:64:64-i64:64-f80:128-n8:16:32:64-S128"
target triple = "x86_64-pc-linux-gnu"

@.str = private unnamed_addr constant [3 x i8] c"%d\00", align 1
@.str.1 = private unnamed_addr constant [4 x i8] c"%d\0A\00", align 1

; Function Attrs: noinline nounwind uwtable
define dso_local void @main() #0 {
  %1 = alloca [18 x i32], align 16
  %2 = alloca i32, align 4
  %3 = alloca i32, align 4
  %4 = alloca i32, align 4
  %5 = alloca i32, align 4
  %6 = alloca i32, align 4
  %7 = alloca [100 x i32], align 16
  %8 = alloca i32, align 4
  store i32 0, i32* %6, align 4
  %9 = call i32 (i8*, ...) @__isoc99_scanf(i8* getelementptr inbounds ([3 x i8], [3 x i8]* @.str, i64 0, i64 0), i32* %8)
  br label %10

10:                                               ; preds = %84, %0
  %11 = load i32, i32* %8, align 4
  %12 = icmp ne i32 %11, -1
  br i1 %12, label %13, label %90

13:                                               ; preds = %10
  store i32 1, i32* %2, align 4
  %14 = load i32, i32* %6, align 4
  %15 = add nsw i32 %14, 1
  store i32 %15, i32* %6, align 4
  store i32 0, i32* %3, align 4
  %16 = load i32, i32* %8, align 4
  %17 = getelementptr inbounds [18 x i32], [18 x i32]* %1, i64 0, i64 0
  store i32 %16, i32* %17, align 16
  store i32 1, i32* %4, align 4
  br label %18

18:                                               ; preds = %36, %13
  %19 = load i32, i32* %4, align 4
  %20 = icmp slt i32 %19, 18
  br i1 %20, label %21, label %39

21:                                               ; preds = %18
  %22 = load i32, i32* %4, align 4
  %23 = sext i32 %22 to i64
  %24 = getelementptr inbounds [18 x i32], [18 x i32]* %1, i64 0, i64 %23
  %25 = call i32 (i8*, ...) @__isoc99_scanf(i8* getelementptr inbounds ([3 x i8], [3 x i8]* @.str, i64 0, i64 0), i32* %24)
  %26 = load i32, i32* %4, align 4
  %27 = sext i32 %26 to i64
  %28 = getelementptr inbounds [18 x i32], [18 x i32]* %1, i64 0, i64 %27
  %29 = load i32, i32* %28, align 4
  %30 = icmp ne i32 %29, 0
  br i1 %30, label %31, label %34

31:                                               ; preds = %21
  %32 = load i32, i32* %2, align 4
  %33 = add nsw i32 %32, 1
  store i32 %33, i32* %2, align 4
  br label %35

34:                                               ; preds = %21
  br label %39

35:                                               ; preds = %31
  br label %36

36:                                               ; preds = %35
  %37 = load i32, i32* %4, align 4
  %38 = add nsw i32 %37, 1
  store i32 %38, i32* %4, align 4
  br label %18

39:                                               ; preds = %34, %18
  store i32 0, i32* %4, align 4
  br label %40

40:                                               ; preds = %81, %39
  %41 = load i32, i32* %4, align 4
  %42 = load i32, i32* %2, align 4
  %43 = icmp slt i32 %41, %42
  br i1 %43, label %44, label %84

44:                                               ; preds = %40
  %45 = load i32, i32* %2, align 4
  %46 = sub nsw i32 %45, 1
  store i32 %46, i32* %5, align 4
  br label %47

47:                                               ; preds = %77, %44
  %48 = load i32, i32* %5, align 4
  %49 = load i32, i32* %4, align 4
  %50 = icmp sgt i32 %48, %49
  br i1 %50, label %51, label %80

51:                                               ; preds = %47
  %52 = load i32, i32* %5, align 4
  %53 = sext i32 %52 to i64
  %54 = getelementptr inbounds [18 x i32], [18 x i32]* %1, i64 0, i64 %53
  %55 = load i32, i32* %54, align 4
  %56 = load i32, i32* %4, align 4
  %57 = sext i32 %56 to i64
  %58 = getelementptr inbounds [18 x i32], [18 x i32]* %1, i64 0, i64 %57
  %59 = load i32, i32* %58, align 4
  %60 = mul nsw i32 2, %59
  %61 = icmp eq i32 %55, %60
  br i1 %61, label %73, label %62

62:                                               ; preds = %51
  %63 = load i32, i32* %4, align 4
  %64 = sext i32 %63 to i64
  %65 = getelementptr inbounds [18 x i32], [18 x i32]* %1, i64 0, i64 %64
  %66 = load i32, i32* %65, align 4
  %67 = load i32, i32* %5, align 4
  %68 = sext i32 %67 to i64
  %69 = getelementptr inbounds [18 x i32], [18 x i32]* %1, i64 0, i64 %68
  %70 = load i32, i32* %69, align 4
  %71 = mul nsw i32 2, %70
  %72 = icmp eq i32 %66, %71
  br i1 %72, label %73, label %76

73:                                               ; preds = %62, %51
  %74 = load i32, i32* %3, align 4
  %75 = add nsw i32 %74, 1
  store i32 %75, i32* %3, align 4
  br label %76

76:                                               ; preds = %73, %62
  br label %77

77:                                               ; preds = %76
  %78 = load i32, i32* %5, align 4
  %79 = add nsw i32 %78, -1
  store i32 %79, i32* %5, align 4
  br label %47

80:                                               ; preds = %47
  br label %81

81:                                               ; preds = %80
  %82 = load i32, i32* %4, align 4
  %83 = add nsw i32 %82, 1
  store i32 %83, i32* %4, align 4
  br label %40

84:                                               ; preds = %40
  %85 = load i32, i32* %3, align 4
  %86 = load i32, i32* %6, align 4
  %87 = sext i32 %86 to i64
  %88 = getelementptr inbounds [100 x i32], [100 x i32]* %7, i64 0, i64 %87
  store i32 %85, i32* %88, align 4
  %89 = call i32 (i8*, ...) @__isoc99_scanf(i8* getelementptr inbounds ([3 x i8], [3 x i8]* @.str, i64 0, i64 0), i32* %8)
  br label %10

90:                                               ; preds = %10
  store i32 1, i32* %4, align 4
  br label %91

91:                                               ; preds = %102, %90
  %92 = load i32, i32* %4, align 4
  %93 = load i32, i32* %6, align 4
  %94 = add nsw i32 %93, 1
  %95 = icmp slt i32 %92, %94
  br i1 %95, label %96, label %105

96:                                               ; preds = %91
  %97 = load i32, i32* %4, align 4
  %98 = sext i32 %97 to i64
  %99 = getelementptr inbounds [100 x i32], [100 x i32]* %7, i64 0, i64 %98
  %100 = load i32, i32* %99, align 4
  %101 = call i32 (i8*, ...) @printf(i8* getelementptr inbounds ([4 x i8], [4 x i8]* @.str.1, i64 0, i64 0), i32 %100)
  br label %102

102:                                              ; preds = %96
  %103 = load i32, i32* %4, align 4
  %104 = add nsw i32 %103, 1
  store i32 %104, i32* %4, align 4
  br label %91

105:                                              ; preds = %91
  ret void
}

declare dso_local i32 @__isoc99_scanf(i8*, ...) #1

declare dso_local i32 @printf(i8*, ...) #1


!llvm.module.flags = !{!0}
!llvm.ident = !{!1}

!0 = !{i32 1, !"wchar_size", i32 4}
!1 = !{!"clang version 10.0.0-4ubuntu1 "}
